target datalayout = "e-m:e-p270:32:32-p271:32:32-p272:64:64-i64:64-i128:128-f80:128-n8:16:32:64-S128"
target triple = "x86_64-pc-linux-gnu"

%struct.X509_algor_st = type { ptr, ptr }
%struct.asn1_type_st = type { i32, %union.anon }
%union.anon = type { ptr }
%struct.PBKDF2PARAM_st = type { ptr, ptr, ptr, ptr }
%struct.asn1_string_st = type { i32, i32, ptr, i64 }

@PBKDF2PARAM_it = hidden constant { i8, [7 x i8], i64, ptr, i64, ptr, i64, ptr } { i8 1, [7 x i8] zeroinitializer, i64 16, ptr @PBKDF2PARAM_seq_tt, i64 4, ptr null, i64 32, ptr @.str.1 }, align 8
@.str.2 = private unnamed_addr constant [127 x i8] c"generated/home/dtcxzyw/WorkSpace/Projects/compilers/llvm-opt-benchmark/bench/libquic/libquic/boringssl/crypto/pkcs8/p5_pbev2.c\00", align 1

; Function Attrs: nounwind uwtable
define hidden void @PBKDF2PARAM_free(ptr noundef %0) #0 {
  %2 = alloca ptr, align 8
  store ptr %0, ptr %2, align 8, !tbaa !19
  %3 = load ptr, ptr %2, align 8, !tbaa !19
  call void @ASN1_item_free(ptr noundef %3, ptr noundef @PBKDF2PARAM_it)
  ret void
}

; Function Attrs: nounwind uwtable
define hidden ptr @d2i_PBKDF2PARAM(ptr noundef %0, ptr noundef %1, i64 noundef %2) #0 {
  %4 = alloca ptr, align 8
  %5 = alloca ptr, align 8
  %6 = alloca i64, align 8
  store ptr %0, ptr %4, align 8, !tbaa !17
  store ptr %1, ptr %5, align 8, !tbaa !11
  store i64 %2, ptr %6, align 8, !tbaa !13
  %7 = load ptr, ptr %4, align 8, !tbaa !17
  %8 = load ptr, ptr %5, align 8, !tbaa !11
  %9 = load i64, ptr %6, align 8, !tbaa !13
  %10 = call ptr @ASN1_item_d2i(ptr noundef %7, ptr noundef %8, i64 noundef %9, ptr noundef @PBKDF2PARAM_it)
  ret ptr %10
}

; Function Attrs: nounwind uwtable
define internal i32 @PKCS5_v2_PBKDF2_keyivgen(ptr noundef %0, ptr noundef %1, i64 noundef %2, ptr noundef %3, ptr noundef %4, i32 noundef %5) #0 {
  %7 = alloca ptr, align 8
  %8 = alloca ptr, align 8
  %9 = alloca i64, align 8
  %10 = alloca ptr, align 8
  %11 = alloca ptr, align 8
  %12 = alloca i32, align 4
  %13 = alloca i32, align 4
  %14 = alloca ptr, align 8
  %15 = alloca ptr, align 8
  %16 = alloca i32, align 4
  %17 = alloca [64 x i8], align 16
  %18 = alloca i64, align 8
  %19 = alloca i64, align 8
  %20 = alloca i64, align 8
  store ptr %0, ptr %7, align 8, !tbaa !40
  store ptr %1, ptr %8, align 8, !tbaa !25
  store i64 %2, ptr %9, align 8, !tbaa !13
  store ptr %3, ptr %10, align 8, !tbaa !42
  store ptr %4, ptr %11, align 8, !tbaa !42
  store i32 %5, ptr %12, align 4, !tbaa !23
  call void @llvm.lifetime.start.p0(i64 4, ptr %13) #5
  store i32 0, ptr %13, align 4, !tbaa !23
  call void @llvm.lifetime.start.p0(i64 8, ptr %14) #5
  store ptr null, ptr %14, align 8, !tbaa !19
  %21 = load ptr, ptr %7, align 8, !tbaa !40
  %22 = call ptr @EVP_CIPHER_CTX_cipher(ptr noundef %21)
  %23 = icmp eq ptr %22, null
  br i1 %23, label %24, label %25

24:                                               ; preds = %6
  call void @ERR_put_error(i32 noundef 19, i32 noundef 0, i32 noundef 114, ptr noundef @.str.2, i32 noundef 315)
  br label %180

25:                                               ; preds = %6
  %26 = load ptr, ptr %10, align 8, !tbaa !42
  %27 = icmp eq ptr %26, null
  br i1 %27, label %33, label %28

28:                                               ; preds = %25
  %29 = load ptr, ptr %10, align 8, !tbaa !42
  %30 = getelementptr inbounds nuw %struct.asn1_type_st, ptr %29, i32 0, i32 0
  %31 = load i32, ptr %30, align 8, !tbaa !38
  %32 = icmp ne i32 %31, 16
  br i1 %32, label %33, label %34

33:                                               ; preds = %28, %25
  call void @ERR_put_error(i32 noundef 19, i32 noundef 0, i32 noundef 104, ptr noundef @.str.2, i32 noundef 321)
  br label %180

34:                                               ; preds = %28
  %35 = load ptr, ptr %10, align 8, !tbaa !42
  %36 = getelementptr inbounds nuw %struct.asn1_type_st, ptr %35, i32 0, i32 1
  %37 = load ptr, ptr %36, align 8, !tbaa !47
  %38 = getelementptr inbounds nuw %struct.asn1_string_st, ptr %37, i32 0, i32 2
  %39 = load ptr, ptr %38, align 8, !tbaa !48
  store ptr %39, ptr %15, align 8, !tbaa !25
  %40 = load ptr, ptr %10, align 8, !tbaa !42
  %41 = getelementptr inbounds nuw %struct.asn1_type_st, ptr %40, i32 0, i32 1
  %42 = load ptr, ptr %41, align 8, !tbaa !47
  %43 = getelementptr inbounds nuw %struct.asn1_string_st, ptr %42, i32 0, i32 0
  %44 = load i32, ptr %43, align 8, !tbaa !50
  store i32 %44, ptr %16, align 4, !tbaa !23
  %45 = load i32, ptr %16, align 4, !tbaa !23
  %46 = sext i32 %45 to i64
  %47 = call ptr @d2i_PBKDF2PARAM(ptr noundef null, ptr noundef %15, i64 noundef %46)
  store ptr %47, ptr %14, align 8, !tbaa !19
  %48 = load ptr, ptr %14, align 8, !tbaa !19
  %49 = icmp eq ptr %48, null
  br i1 %49, label %61, label %50

50:                                               ; preds = %34
  %51 = load ptr, ptr %15, align 8, !tbaa !25
  %52 = load ptr, ptr %10, align 8, !tbaa !42
  %53 = getelementptr inbounds nuw %struct.asn1_type_st, ptr %52, i32 0, i32 1
  %54 = load ptr, ptr %53, align 8, !tbaa !47
  %55 = getelementptr inbounds nuw %struct.asn1_string_st, ptr %54, i32 0, i32 2
  %56 = load ptr, ptr %55, align 8, !tbaa !48
  %57 = load i32, ptr %16, align 4, !tbaa !23
  %58 = sext i32 %57 to i64
  %59 = getelementptr inbounds i8, ptr %56, i64 %58
  %60 = icmp ne ptr %51, %59
  br i1 %60, label %61, label %62

61:                                               ; preds = %50, %34
  call void @ERR_put_error(i32 noundef 19, i32 noundef 0, i32 noundef 104, ptr noundef @.str.2, i32 noundef 329)
  br label %180

62:                                               ; preds = %50
  %63 = load ptr, ptr %7, align 8, !tbaa !40
  %64 = call i32 @EVP_CIPHER_CTX_key_length(ptr noundef %63)
  %65 = zext i32 %64 to i64
  store i64 %65, ptr %18, align 8, !tbaa !13
  %66 = load ptr, ptr %14, align 8, !tbaa !19
  %67 = getelementptr inbounds nuw %struct.PBKDF2PARAM_st, ptr %66, i32 0, i32 2
  %68 = load ptr, ptr %67, align 8, !tbaa !52
  %69 = icmp ne ptr %68, null
  br i1 %69, label %70, label %80

70:                                               ; preds = %62
  %71 = load ptr, ptr %14, align 8, !tbaa !19
  %72 = getelementptr inbounds nuw %struct.PBKDF2PARAM_st, ptr %71, i32 0, i32 2
  %73 = load ptr, ptr %72, align 8, !tbaa !52
  %74 = call i64 @ASN1_INTEGER_get(ptr noundef %73)
  %75 = load i64, ptr %18, align 8, !tbaa !13
  %76 = trunc i64 %75 to i32
  %77 = sext i32 %76 to i64
  %78 = icmp ne i64 %74, %77
  br i1 %78, label %79, label %80

79:                                               ; preds = %70
  call void @ERR_put_error(i32 noundef 19, i32 noundef 0, i32 noundef 125, ptr noundef @.str.2, i32 noundef 340)
  br label %180

80:                                               ; preds = %70, %62
  %81 = load ptr, ptr %14, align 8, !tbaa !19
  %82 = getelementptr inbounds nuw %struct.PBKDF2PARAM_st, ptr %81, i32 0, i32 3
  %83 = load ptr, ptr %82, align 8, !tbaa !53
  %84 = icmp ne ptr %83, null
  br i1 %84, label %85, label %94

85:                                               ; preds = %80
  %86 = load ptr, ptr %14, align 8, !tbaa !19
  %87 = getelementptr inbounds nuw %struct.PBKDF2PARAM_st, ptr %86, i32 0, i32 3
  %88 = load ptr, ptr %87, align 8, !tbaa !53
  %89 = getelementptr inbounds nuw %struct.X509_algor_st, ptr %88, i32 0, i32 0
  %90 = load ptr, ptr %89, align 8, !tbaa !33
  %91 = call i32 @OBJ_obj2nid(ptr noundef %90)
  %92 = icmp ne i32 %91, 163
  br i1 %92, label %93, label %94

93:                                               ; preds = %85
  call void @ERR_put_error(i32 noundef 19, i32 noundef 0, i32 noundef 130, ptr noundef @.str.2, i32 noundef 346)
  br label %180

94:                                               ; preds = %85, %80
  %95 = load ptr, ptr %14, align 8, !tbaa !19
  %96 = getelementptr inbounds nuw %struct.PBKDF2PARAM_st, ptr %95, i32 0, i32 0
  %97 = load ptr, ptr %96, align 8, !tbaa !45
  %98 = getelementptr inbounds nuw %struct.asn1_type_st, ptr %97, i32 0, i32 0
  %99 = load i32, ptr %98, align 8, !tbaa !38
  %100 = icmp ne i32 %99, 4
  br i1 %100, label %101, label %102

101:                                              ; preds = %94
  call void @ERR_put_error(i32 noundef 19, i32 noundef 0, i32 noundef 126, ptr noundef @.str.2, i32 noundef 351)
  br label %180

102:                                              ; preds = %94
  %103 = load ptr, ptr %14, align 8, !tbaa !19
  %104 = getelementptr inbounds nuw %struct.PBKDF2PARAM_st, ptr %103, i32 0, i32 1
  %105 = load ptr, ptr %104, align 8, !tbaa !51
  %106 = getelementptr inbounds nuw %struct.asn1_string_st, ptr %105, i32 0, i32 1
  %107 = load i32, ptr %106, align 4, !tbaa !56
  %108 = icmp ne i32 %107, 2
  br i1 %108, label %109, label %110

109:                                              ; preds = %102
  call void @ERR_put_error(i32 noundef 19, i32 noundef 0, i32 noundef 129, ptr noundef @.str.2, i32 noundef 356)
  br label %180

110:                                              ; preds = %102
  %111 = load ptr, ptr %14, align 8, !tbaa !19
  %112 = getelementptr inbounds nuw %struct.PBKDF2PARAM_st, ptr %111, i32 0, i32 1
  %113 = load ptr, ptr %112, align 8, !tbaa !51
  %114 = call i64 @ASN1_INTEGER_get(ptr noundef %113)
  store i64 %114, ptr %19, align 8, !tbaa !13
  %115 = load i64, ptr %19, align 8, !tbaa !13
  %116 = icmp sle i64 %115, 0
  br i1 %116, label %120, label %117

117:                                              ; preds = %110
  %118 = load i64, ptr %19, align 8, !tbaa !13
  %119 = icmp sgt i64 %118, 4294967295
  br i1 %119, label %120, label %121

120:                                              ; preds = %117, %110
  call void @ERR_put_error(i32 noundef 19, i32 noundef 0, i32 noundef 129, ptr noundef @.str.2, i32 noundef 362)
  br label %180

121:                                              ; preds = %117
  %122 = load ptr, ptr %11, align 8, !tbaa !42
  %123 = getelementptr inbounds nuw %struct.asn1_type_st, ptr %122, i32 0, i32 0
  %124 = load i32, ptr %123, align 8, !tbaa !38
  %125 = icmp ne i32 %124, 4
  br i1 %125, label %131, label %126

126:                                              ; preds = %121
  %127 = load ptr, ptr %11, align 8, !tbaa !42
  %128 = getelementptr inbounds nuw %struct.asn1_type_st, ptr %127, i32 0, i32 1
  %129 = load ptr, ptr %128, align 8, !tbaa !47
  %130 = icmp eq ptr %129, null
  br i1 %130, label %131, label %132

131:                                              ; preds = %126, %121
  call void @ERR_put_error(i32 noundef 19, i32 noundef 0, i32 noundef 107, ptr noundef @.str.2, i32 noundef 367)
  br label %180

132:                                              ; preds = %126
  %133 = load ptr, ptr %7, align 8, !tbaa !40
  %134 = call i32 @EVP_CIPHER_CTX_iv_length(ptr noundef %133)
  %135 = zext i32 %134 to i64
  store i64 %135, ptr %20, align 8, !tbaa !13
  %136 = load ptr, ptr %11, align 8, !tbaa !42
  %137 = getelementptr inbounds nuw %struct.asn1_type_st, ptr %136, i32 0, i32 1
  %138 = load ptr, ptr %137, align 8, !tbaa !47
  %139 = getelementptr inbounds nuw %struct.asn1_string_st, ptr %138, i32 0, i32 0
  %140 = load i32, ptr %139, align 8, !tbaa !50
  %141 = sext i32 %140 to i64
  %142 = load i64, ptr %20, align 8, !tbaa !13
  %143 = icmp ne i64 %141, %142
  br i1 %143, label %144, label %145

144:                                              ; preds = %132
  call void @ERR_put_error(i32 noundef 19, i32 noundef 0, i32 noundef 107, ptr noundef @.str.2, i32 noundef 373)
  br label %180

145:                                              ; preds = %132
  %146 = load ptr, ptr %8, align 8, !tbaa !25
  %147 = load i64, ptr %9, align 8, !tbaa !13
  %148 = load ptr, ptr %14, align 8, !tbaa !19
  %149 = getelementptr inbounds nuw %struct.PBKDF2PARAM_st, ptr %148, i32 0, i32 0
  %150 = load ptr, ptr %149, align 8, !tbaa !45
  %151 = getelementptr inbounds nuw %struct.asn1_type_st, ptr %150, i32 0, i32 1
  %152 = load ptr, ptr %151, align 8, !tbaa !47
  %153 = getelementptr inbounds nuw %struct.asn1_string_st, ptr %152, i32 0, i32 2
  %154 = load ptr, ptr %153, align 8, !tbaa !48
  %155 = load ptr, ptr %14, align 8, !tbaa !19
  %156 = getelementptr inbounds nuw %struct.PBKDF2PARAM_st, ptr %155, i32 0, i32 0
  %157 = load ptr, ptr %156, align 8, !tbaa !45
  %158 = getelementptr inbounds nuw %struct.asn1_type_st, ptr %157, i32 0, i32 1
  %159 = load ptr, ptr %158, align 8, !tbaa !47
  %160 = getelementptr inbounds nuw %struct.asn1_string_st, ptr %159, i32 0, i32 0
  %161 = load i32, ptr %160, align 8, !tbaa !50
  %162 = sext i32 %161 to i64
  %163 = load i64, ptr %19, align 8, !tbaa !13
  %164 = trunc i64 %163 to i32
  %165 = load i64, ptr %18, align 8, !tbaa !13
  %166 = getelementptr inbounds [64 x i8], ptr %17, i64 0, i64 0
  %167 = call i32 @PKCS5_PBKDF2_HMAC_SHA1(ptr noundef %146, i64 noundef %147, ptr noundef %154, i64 noundef %162, i32 noundef %164, i64 noundef %165, ptr noundef %166)
  %168 = icmp ne i32 %167, 0
  br i1 %168, label %170, label %169

169:                                              ; preds = %145
  br label %180

170:                                              ; preds = %145
  %171 = load ptr, ptr %7, align 8, !tbaa !40
  %172 = getelementptr inbounds [64 x i8], ptr %17, i64 0, i64 0
  %173 = load ptr, ptr %11, align 8, !tbaa !42
  %174 = getelementptr inbounds nuw %struct.asn1_type_st, ptr %173, i32 0, i32 1
  %175 = load ptr, ptr %174, align 8, !tbaa !47
  %176 = getelementptr inbounds nuw %struct.asn1_string_st, ptr %175, i32 0, i32 2
  %177 = load ptr, ptr %176, align 8, !tbaa !48
  %178 = load i32, ptr %12, align 4, !tbaa !23
  %179 = call i32 @EVP_CipherInit_ex(ptr noundef %171, ptr noundef null, ptr noundef null, ptr noundef %172, ptr noundef %177, i32 noundef %178)
  store i32 %179, ptr %13, align 4, !tbaa !23
  br label %180

180:                                              ; preds = %170, %169, %144, %131, %120, %109, %101, %93, %79, %61, %33, %24
  %181 = load ptr, ptr %14, align 8, !tbaa !19
  call void @PBKDF2PARAM_free(ptr noundef %181)
  %182 = load i32, ptr %13, align 4, !tbaa !23
  call void @llvm.lifetime.end.p0(i64 8, ptr %14) #5
  call void @llvm.lifetime.end.p0(i64 4, ptr %13) #5
  ret i32 %182
}