; Function Attrs: nounwind uwtable
define internal fastcc i32 @PKCS5_v2_PBKDF2_keyivgen(ptr noundef %0, ptr noundef %1, i64 noundef %2, ptr noundef readonly captures(address_is_null) %3, ptr noundef readonly captures(none) %4, i32 noundef %5) unnamed_addr #0 {
  %7 = alloca ptr, align 8
  %8 = alloca [64 x i8], align 16
  %9 = tail call ptr @EVP_CIPHER_CTX_cipher(ptr noundef %0) #5
  %10 = icmp eq ptr %9, null
  br i1 %10, label %11, label %12

11:                                               ; preds = %6
  tail call void @ERR_put_error(i32 noundef 19, i32 noundef 0, i32 noundef 114, ptr noundef nonnull @.str.2, i32 noundef 315) #5
  br label %92

12:                                               ; preds = %6
  %13 = icmp eq ptr %3, null
  br i1 %13, label %16, label %14

14:                                               ; preds = %12
  %15 = load i32, ptr %3, align 8, !tbaa !20
  %.not = icmp eq i32 %15, 16
  br i1 %.not, label %17, label %16

16:                                               ; preds = %14, %12
  tail call void @ERR_put_error(i32 noundef 19, i32 noundef 0, i32 noundef 104, ptr noundef nonnull @.str.2, i32 noundef 321) #5
  br label %92

17:                                               ; preds = %14
  %18 = getelementptr inbounds nuw i8, ptr %3, i64 8
  %19 = load ptr, ptr %18, align 8, !tbaa !25
  %20 = getelementptr inbounds nuw i8, ptr %19, i64 8
  %21 = load ptr, ptr %20, align 8, !tbaa !26
  store ptr %21, ptr %7, align 8, !tbaa !34
  %22 = load i32, ptr %19, align 8, !tbaa !30
  %23 = sext i32 %22 to i64
  %24 = call ptr @ASN1_item_d2i(ptr noundef null, ptr noundef nonnull %7, i64 noundef %23, ptr noundef nonnull @PBKDF2PARAM_it) #5
  %25 = icmp eq ptr %24, null
  br i1 %25, label %32, label %26

26:                                               ; preds = %17
  %27 = load ptr, ptr %7, align 8, !tbaa !34
  %28 = load ptr, ptr %18, align 8, !tbaa !25
  %29 = getelementptr inbounds nuw i8, ptr %28, i64 8
  %30 = load ptr, ptr %29, align 8, !tbaa !26
  %31 = getelementptr inbounds i8, ptr %30, i64 %23
  %.not42 = icmp eq ptr %27, %31
  br i1 %.not42, label %33, label %32

32:                                               ; preds = %26, %17
  call void @ERR_put_error(i32 noundef 19, i32 noundef 0, i32 noundef 104, ptr noundef nonnull @.str.2, i32 noundef 329) #5
  br label %92

33:                                               ; preds = %26
  %34 = call i32 @EVP_CIPHER_CTX_key_length(ptr noundef %0) #5
  %35 = zext i32 %34 to i64
  %36 = getelementptr inbounds nuw i8, ptr %24, i64 16
  %37 = load ptr, ptr %36, align 8, !tbaa !32
  %.not43 = icmp eq ptr %37, null
  br i1 %.not43, label %42, label %38

38:                                               ; preds = %33
  %39 = call i64 @ASN1_INTEGER_get(ptr noundef nonnull %37) #5
  %40 = sext i32 %34 to i64
  %.not44 = icmp eq i64 %39, %40
  br i1 %.not44, label %42, label %41

41:                                               ; preds = %38
  call void @ERR_put_error(i32 noundef 19, i32 noundef 0, i32 noundef 125, ptr noundef nonnull @.str.2, i32 noundef 340) #5
  br label %92

42:                                               ; preds = %38, %33
  %43 = getelementptr inbounds nuw i8, ptr %24, i64 24
  %44 = load ptr, ptr %43, align 8, !tbaa !33
  %.not45 = icmp eq ptr %44, null
  br i1 %.not45, label %49, label %45

45:                                               ; preds = %42
  %46 = load ptr, ptr %44, align 8, !tbaa !14
  %47 = call i32 @OBJ_obj2nid(ptr noundef %46) #5
  %.not46 = icmp eq i32 %47, 163
  br i1 %.not46, label %49, label %48

48:                                               ; preds = %45
  call void @ERR_put_error(i32 noundef 19, i32 noundef 0, i32 noundef 130, ptr noundef nonnull @.str.2, i32 noundef 346) #5
  br label %92

49:                                               ; preds = %45, %42
  %50 = load ptr, ptr %24, align 8, !tbaa !22
  %51 = load i32, ptr %50, align 8, !tbaa !20
  %.not47 = icmp eq i32 %51, 4
  br i1 %.not47, label %53, label %52

52:                                               ; preds = %49
  call void @ERR_put_error(i32 noundef 19, i32 noundef 0, i32 noundef 126, ptr noundef nonnull @.str.2, i32 noundef 351) #5
  br label %92

53:                                               ; preds = %49
  %54 = getelementptr inbounds nuw i8, ptr %24, i64 8
  %55 = load ptr, ptr %54, align 8, !tbaa !31
  %56 = getelementptr inbounds nuw i8, ptr %55, i64 4
  %57 = load i32, ptr %56, align 4, !tbaa !35
  %.not48 = icmp eq i32 %57, 2
  br i1 %.not48, label %59, label %58

58:                                               ; preds = %53
  call void @ERR_put_error(i32 noundef 19, i32 noundef 0, i32 noundef 129, ptr noundef nonnull @.str.2, i32 noundef 356) #5
  br label %92

59:                                               ; preds = %53
  %60 = call i64 @ASN1_INTEGER_get(ptr noundef nonnull %55) #5
  %61 = add i64 %60, -4294967296
  %or.cond = icmp ult i64 %61, -4294967295
  br i1 %or.cond, label %62, label %63

62:                                               ; preds = %59
  call void @ERR_put_error(i32 noundef 19, i32 noundef 0, i32 noundef 129, ptr noundef nonnull @.str.2, i32 noundef 362) #5
  br label %92

63:                                               ; preds = %59
  %64 = load i32, ptr %4, align 8, !tbaa !20
  %.not49 = icmp eq i32 %64, 4
  br i1 %.not49, label %65, label %69

65:                                               ; preds = %63
  %66 = getelementptr inbounds nuw i8, ptr %4, i64 8
  %67 = load ptr, ptr %66, align 8, !tbaa !25
  %68 = icmp eq ptr %67, null
  br i1 %68, label %69, label %70

69:                                               ; preds = %65, %63
  call void @ERR_put_error(i32 noundef 19, i32 noundef 0, i32 noundef 107, ptr noundef nonnull @.str.2, i32 noundef 367) #5
  br label %92

70:                                               ; preds = %65
  %71 = call i32 @EVP_CIPHER_CTX_iv_length(ptr noundef %0) #5
  %72 = zext i32 %71 to i64
  %73 = load ptr, ptr %66, align 8, !tbaa !25
  %74 = load i32, ptr %73, align 8, !tbaa !30
  %75 = sext i32 %74 to i64
  %.not50 = icmp eq i64 %75, %72
  br i1 %.not50, label %77, label %76

76:                                               ; preds = %70
  call void @ERR_put_error(i32 noundef 19, i32 noundef 0, i32 noundef 107, ptr noundef nonnull @.str.2, i32 noundef 373) #5
  br label %92

77:                                               ; preds = %70
  %78 = load ptr, ptr %24, align 8, !tbaa !22
  %79 = getelementptr inbounds nuw i8, ptr %78, i64 8
  %80 = load ptr, ptr %79, align 8, !tbaa !25
  %81 = getelementptr inbounds nuw i8, ptr %80, i64 8
  %82 = load ptr, ptr %81, align 8, !tbaa !26
  %83 = load i32, ptr %80, align 8, !tbaa !30
  %84 = sext i32 %83 to i64
  %85 = trunc nuw i64 %60 to i32
  %86 = call i32 @PKCS5_PBKDF2_HMAC_SHA1(ptr noundef %1, i64 noundef %2, ptr noundef %82, i64 noundef %84, i32 noundef %85, i64 noundef %35, ptr noundef nonnull %8) #5
  %.not51 = icmp eq i32 %86, 0
  br i1 %.not51, label %92, label %87

87:                                               ; preds = %77
  %88 = load ptr, ptr %66, align 8, !tbaa !25
  %89 = getelementptr inbounds nuw i8, ptr %88, i64 8
  %90 = load ptr, ptr %89, align 8, !tbaa !26
  %91 = call i32 @EVP_CipherInit_ex(ptr noundef %0, ptr noundef null, ptr noundef null, ptr noundef nonnull %8, ptr noundef %90, i32 noundef %5) #5
  br label %92

92:                                               ; preds = %77, %87, %76, %69, %62, %58, %52, %48, %41, %32, %16, %11
  %.036 = phi ptr [ null, %11 ], [ null, %16 ], [ %24, %32 ], [ %24, %41 ], [ %24, %48 ], [ %24, %52 ], [ %24, %58 ], [ %24, %62 ], [ %24, %69 ], [ %24, %76 ], [ %24, %87 ], [ %24, %77 ]
  %.0 = phi i32 [ 0, %11 ], [ 0, %16 ], [ 0, %32 ], [ 0, %41 ], [ 0, %48 ], [ 0, %52 ], [ 0, %58 ], [ 0, %62 ], [ 0, %69 ], [ 0, %76 ], [ %91, %87 ], [ 0, %77 ]
  call void @ASN1_item_free(ptr noundef %.036, ptr noundef nonnull @PBKDF2PARAM_it) #5
  ret i32 %.0
}